target datalayout = "e-m:e-p270:32:32-p271:32:32-p272:64:64-i64:64-i128:128-f80:128-n8:16:32:64-S128"
target triple = "x86_64-pc-linux-gnu"

%"class.arrow::FieldRef" = type { %"class.std::variant.271" }
%"class.std::variant.271" = type { %"struct.std::__detail::__variant::_Variant_base.base.291", [7 x i8] }
%"struct.std::__detail::__variant::_Variant_base.base.291" = type { %"struct.std::__detail::__variant::_Move_assign_base.base.290" }
%"struct.std::__detail::__variant::_Move_assign_base.base.290" = type { %"struct.std::__detail::__variant::_Copy_assign_base.base.289" }
%"struct.std::__detail::__variant::_Copy_assign_base.base.289" = type { %"struct.std::__detail::__variant::_Move_ctor_base.base.288" }
%"struct.std::__detail::__variant::_Move_ctor_base.base.288" = type { %"struct.std::__detail::__variant::_Copy_ctor_base.base.287" }
%"struct.std::__detail::__variant::_Copy_ctor_base.base.287" = type { %"struct.std::__detail::__variant::_Variant_storage.base.286" }
%"struct.std::__detail::__variant::_Variant_storage.base.286" = type { %"union.std::__detail::__variant::_Variadic_union.278", i8 }
%"union.std::__detail::__variant::_Variadic_union.278" = type { %"union.std::__detail::__variant::_Variadic_union.280" }
%"union.std::__detail::__variant::_Variadic_union.280" = type { %"struct.std::__detail::__variant::_Uninitialized.281" }
%"struct.std::__detail::__variant::_Uninitialized.281" = type { %"struct.__gnu_cxx::__aligned_membuf.282" }
%"struct.__gnu_cxx::__aligned_membuf.282" = type { [32 x i8] }
%struct.Visitor.307 = type { i8 }
%"struct.std::__detail::__variant::_Variant_storage.277" = type { %"union.std::__detail::__variant::_Variadic_union.278", i8, [7 x i8] }
%"class.std::bad_variant_access" = type { %"class.std::exception", ptr }
%"class.std::exception" = type { ptr }

@.str.216 = private unnamed_addr constant [33 x i8] c"std::visit: variant is valueless\00", align 1
@_ZTISt18bad_variant_access = linkonce_odr constant { ptr, ptr, ptr } { ptr getelementptr inbounds (ptr, ptr @_ZTVN10__cxxabiv120__si_class_type_infoE, i64 2), ptr @_ZTSSt18bad_variant_access, ptr @_ZTISt9exception }, comdat, align 8
@_ZTVSt18bad_variant_access = linkonce_odr unnamed_addr constant { [5 x ptr] } { [5 x ptr] [ptr null, ptr @_ZTISt18bad_variant_access, ptr @_ZNSt9exceptionD2Ev, ptr @_ZNSt18bad_variant_accessD0Ev, ptr @_ZNKSt18bad_variant_access4whatEv] }, comdat, align 8
@_ZTVSt9exception = available_externally unnamed_addr constant { [5 x ptr] } { [5 x ptr] [ptr null, ptr @_ZTISt9exception, ptr @_ZNSt9exceptionD1Ev, ptr @_ZNSt9exceptionD0Ev, ptr @_ZNKSt9exception4whatEv] }, align 8

; Function Attrs: mustprogress nounwind uwtable
define linkonce_odr void @_ZNSt9exceptionC2Ev(ptr noundef nonnull align 8 dereferenceable(8) %0) unnamed_addr #0 comdat align 2 {
  %2 = alloca ptr, align 8
  store ptr %0, ptr %2, align 8, !tbaa !1306
  %3 = load ptr, ptr %2, align 8
  store ptr getelementptr inbounds inrange(-16, 24) ({ [5 x ptr] }, ptr @_ZTVSt9exception, i32 0, i32 0, i32 2), ptr %3, align 8, !tbaa !166
  ret void
}

; Function Attrs: mustprogress nounwind uwtable
define linkonce_odr void @_ZNSt18bad_variant_accessC2EPKc(ptr noundef nonnull align 8 dereferenceable(16) %0, ptr noundef %1) unnamed_addr #0 comdat align 2 {
  %3 = alloca ptr, align 8
  %4 = alloca ptr, align 8
  store ptr %0, ptr %3, align 8, !tbaa !1301
  store ptr %1, ptr %4, align 8, !tbaa !164
  %5 = load ptr, ptr %3, align 8
  call void @_ZNSt9exceptionC2Ev(ptr noundef nonnull align 8 dereferenceable(8) %5) #15
  store ptr getelementptr inbounds inrange(-16, 24) ({ [5 x ptr] }, ptr @_ZTVSt18bad_variant_access, i32 0, i32 0, i32 2), ptr %5, align 8, !tbaa !166
  %6 = getelementptr inbounds nuw %"class.std::bad_variant_access", ptr %5, i32 0, i32 1
  %7 = load ptr, ptr %4, align 8, !tbaa !164
  store ptr %7, ptr %6, align 8, !tbaa !1303
  ret void
}

; Function Attrs: mustprogress nounwind uwtable
define linkonce_odr noundef zeroext i1 @_ZNKSt8__detail9__variant16_Variant_storageILb0EJN5arrow9FieldPathENSt7__cxx1112basic_stringIcSt11char_traitsIcESaIcEEESt6vectorINS2_8FieldRefESaISB_EEEE8_M_validEv(ptr noundef nonnull align 8 dereferenceable(33) %0) #0 comdat align 2 {
  %2 = alloca ptr, align 8
  store ptr %0, ptr %2, align 8, !tbaa !1227
  %3 = load ptr, ptr %2, align 8
  %4 = getelementptr inbounds nuw %"struct.std::__detail::__variant::_Variant_storage.277", ptr %3, i32 0, i32 1
  %5 = load i8, ptr %4, align 8, !tbaa !1229
  %6 = zext i8 %5 to i32
  %7 = icmp ne i32 %6, 255
  ret i1 %7
}

; Function Attrs: inlinehint mustprogress uwtable
define linkonce_odr void @_ZSt26__throw_bad_variant_accessPKc(ptr noundef %0) #5 comdat {
  %2 = alloca ptr, align 8
  store ptr %0, ptr %2, align 8, !tbaa !164
  %3 = call ptr @__cxa_allocate_exception(i64 16) #15
  %4 = load ptr, ptr %2, align 8, !tbaa !164
  call void @_ZNSt18bad_variant_accessC2EPKc(ptr noundef nonnull align 8 dereferenceable(16) %3, ptr noundef %4) #15
  call void @__cxa_throw(ptr %3, ptr @_ZTISt18bad_variant_access, ptr @_ZNSt9exceptionD2Ev) #31
  unreachable
}

; Function Attrs: mustprogress nounwind uwtable
define linkonce_odr noundef zeroext i1 @_ZNKSt7variantIJN5arrow9FieldPathENSt7__cxx1112basic_stringIcSt11char_traitsIcESaIcEEESt6vectorINS0_8FieldRefESaIS9_EEEE22valueless_by_exceptionEv(ptr noundef nonnull align 8 dereferenceable(33) %0) #0 comdat align 2 {
  %2 = alloca ptr, align 8
  store ptr %0, ptr %2, align 8, !tbaa !659
  %3 = load ptr, ptr %2, align 8
  %4 = call noundef zeroext i1 @_ZNKSt8__detail9__variant16_Variant_storageILb0EJN5arrow9FieldPathENSt7__cxx1112basic_stringIcSt11char_traitsIcESaIcEEESt6vectorINS2_8FieldRefESaISB_EEEE8_M_validEv(ptr noundef nonnull align 8 dereferenceable(33) %3) #15
  %5 = xor i1 %4, true
  ret i1 %5
}

; Function Attrs: mustprogress nounwind uwtable
define linkonce_odr noundef nonnull align 8 dereferenceable(33) ptr @_ZNSt8__detail9__variant4__asIJN5arrow9FieldPathENSt7__cxx1112basic_stringIcSt11char_traitsIcESaIcEEESt6vectorINS2_8FieldRefESaISB_EEEEERKSt7variantIJDpT_EESJ_(ptr noundef nonnull align 8 dereferenceable(33) %0) #0 comdat {
  %2 = alloca ptr, align 8
  store ptr %0, ptr %2, align 8, !tbaa !659
  %3 = load ptr, ptr %2, align 8, !tbaa !659
  ret ptr %3
}

; Function Attrs: mustprogress uwtable
define internal noundef i64 @_ZSt5visitIZNK5arrow8FieldRef4hashEvE7VisitorJRKSt7variantIJNS0_9FieldPathENSt7__cxx1112basic_stringIcSt11char_traitsIcESaIcEEESt6vectorIS1_SaIS1_EEEEEENSt13invoke_resultIT_JDpNSt13__conditionalIX21is_lvalue_reference_vIT0_EEE4typeIRNSt19variant_alternativeILm0ENSt16remove_referenceIDTclsr9__variantE4__asclsr3stdE7declvalISK_EEEEE4typeEE4typeEOST_EEEE4typeEOSI_DpOSK_(ptr noundef nonnull align 1 dereferenceable(1) %0, ptr noundef nonnull align 8 dereferenceable(33) %1) #1 {
  %3 = alloca ptr, align 8
  %4 = alloca ptr, align 8
  %5 = alloca i8, align 1
  store ptr %0, ptr %3, align 8, !tbaa !686
  store ptr %1, ptr %4, align 8, !tbaa !659
  %6 = load ptr, ptr %4, align 8, !tbaa !659
  %7 = call noundef nonnull align 8 dereferenceable(33) ptr @_ZNSt8__detail9__variant4__asIJN5arrow9FieldPathENSt7__cxx1112basic_stringIcSt11char_traitsIcESaIcEEESt6vectorINS2_8FieldRefESaISB_EEEEERKSt7variantIJDpT_EESJ_(ptr noundef nonnull align 8 dereferenceable(33) %6) #15
  %8 = call noundef zeroext i1 @_ZNKSt7variantIJN5arrow9FieldPathENSt7__cxx1112basic_stringIcSt11char_traitsIcESaIcEEESt6vectorINS0_8FieldRefESaIS9_EEEE22valueless_by_exceptionEv(ptr noundef nonnull align 8 dereferenceable(33) %7) #15
  br i1 %8, label %9, label %10

9:                                                ; preds = %2
  call void @_ZSt26__throw_bad_variant_accessPKc(ptr noundef @.str.216)
  br label %10

10:                                               ; preds = %9, %2
  call void @llvm.lifetime.start.p0(i64 1, ptr %5) #15
  store i8 1, ptr %5, align 1, !tbaa !226
  %11 = load ptr, ptr %3, align 8, !tbaa !686
  %12 = load ptr, ptr %4, align 8, !tbaa !659
  %13 = call noundef i64 @_ZSt10__do_visitINSt8__detail9__variant21__deduce_visit_resultImEEZNK5arrow8FieldRef4hashEvE7VisitorJRKSt7variantIJNS4_9FieldPathENSt7__cxx1112basic_stringIcSt11char_traitsIcESaIcEEESt6vectorIS5_SaIS5_EEEEEEDcOT0_DpOT1_(ptr noundef nonnull align 1 dereferenceable(1) %11, ptr noundef nonnull align 8 dereferenceable(33) %12)
  call void @llvm.lifetime.end.p0(i64 1, ptr %5) #15
  ret i64 %13
}

; Function Attrs: mustprogress uwtable
define noundef i64 @_ZNK5arrow8FieldRef4hashEv(ptr noundef nonnull align 8 dereferenceable(40) %0) #1 align 2 {
  %2 = alloca ptr, align 8
  %3 = alloca %struct.Visitor.307, align 1
  store ptr %0, ptr %2, align 8, !tbaa !657
  %4 = load ptr, ptr %2, align 8
  call void @llvm.lifetime.start.p0(i64 1, ptr %3) #15
  %5 = getelementptr inbounds nuw %"class.arrow::FieldRef", ptr %4, i32 0, i32 0
  %6 = call noundef i64 @_ZSt5visitIZNK5arrow8FieldRef4hashEvE7VisitorJRKSt7variantIJNS0_9FieldPathENSt7__cxx1112basic_stringIcSt11char_traitsIcESaIcEEESt6vectorIS1_SaIS1_EEEEEENSt13invoke_resultIT_JDpNSt13__conditionalIX21is_lvalue_reference_vIT0_EEE4typeIRNSt19variant_alternativeILm0ENSt16remove_referenceIDTclsr9__variantE4__asclsr3stdE7declvalISK_EEEEE4typeEE4typeEOST_EEEE4typeEOSI_DpOSK_(ptr noundef nonnull align 1 dereferenceable(1) %3, ptr noundef nonnull align 8 dereferenceable(33) %5)
  call void @llvm.lifetime.end.p0(i64 1, ptr %3) #15
  ret i64 %6
}