; Function Attrs: mustprogress uwtable
define noundef i64 @_ZNK5arrow8FieldRef4hashEv(ptr noundef nonnull readonly align 8 captures(none) dereferenceable(40) %0) local_unnamed_addr #1 align 2 {
  %2 = getelementptr inbounds nuw i8, ptr %0, i64 32
  %3 = load i8, ptr %2, align 8, !tbaa !1413
  %.not.i = icmp eq i8 %3, -1
  br i1 %.not.i, label %4, label %_ZSt5visitIZNK5arrow8FieldRef4hashEvE7VisitorJRKSt7variantIJNS0_9FieldPathENSt7__cxx1112basic_stringIcSt11char_traitsIcESaIcEEESt6vectorIS1_SaIS1_EEEEEENSt13invoke_resultIT_JDpNSt13__conditionalIX21is_lvalue_reference_vIT0_EEE4typeIRNSt19variant_alternativeILm0ENSt16remove_referenceIDTclsr9__variantE4__asclsr3stdE7declvalISK_EEEEE4typeEE4typeEOST_EEEE4typeEOSI_DpOSK_.exit

4:                                                ; preds = %1
  %5 = tail call ptr @__cxa_allocate_exception(i64 16) #38
  store ptr getelementptr inbounds nuw inrange(-16, 24) (i8, ptr @_ZTVSt18bad_variant_access, i64 16), ptr %5, align 8, !tbaa !330
  %6 = getelementptr inbounds nuw i8, ptr %5, i64 8
  store ptr @.str.216, ptr %6, align 8, !tbaa !1424
  tail call void @__cxa_throw(ptr nonnull %5, ptr nonnull @_ZTISt18bad_variant_access, ptr nonnull @_ZNSt9exceptionD2Ev) #40
  unreachable

_ZSt5visitIZNK5arrow8FieldRef4hashEvE7VisitorJRKSt7variantIJNS0_9FieldPathENSt7__cxx1112basic_stringIcSt11char_traitsIcESaIcEEESt6vectorIS1_SaIS1_EEEEEENSt13invoke_resultIT_JDpNSt13__conditionalIX21is_lvalue_reference_vIT0_EEE4typeIRNSt19variant_alternativeILm0ENSt16remove_referenceIDTclsr9__variantE4__asclsr3stdE7declvalISK_EEEEE4typeEE4typeEOST_EEEE4typeEOSI_DpOSK_.exit: ; preds = %1
  %7 = tail call fastcc noundef i64 @_ZSt10__do_visitINSt8__detail9__variant21__deduce_visit_resultImEEZNK5arrow8FieldRef4hashEvE7VisitorJRKSt7variantIJNS4_9FieldPathENSt7__cxx1112basic_stringIcSt11char_traitsIcESaIcEEESt6vectorIS5_SaIS5_EEEEEEDcOT0_DpOT1_(ptr noundef nonnull align 8 dereferenceable(33) %0)
  ret i64 %7
}